; Function Attrs: nounwind uwtable
define internal noundef i32 @cipher_hw_aes_xts_generic_initkey(ptr noundef %0, ptr noundef %1, i64 noundef %2) #1 {
  %4 = load i32, ptr getelementptr inbounds nuw (i8, ptr @OPENSSL_ia32cap_P, i64 4), align 4, !tbaa !3
  %5 = lshr i64 %2, 1
  %6 = shl i64 %5, 3
  %7 = getelementptr inbounds nuw i8, ptr %0, i64 108
  %8 = load i8, ptr %7, align 4
  %9 = and i8 %8, 2
  %.not51 = icmp eq i8 %9, 0
  %10 = trunc i64 %6 to i32
  %11 = getelementptr inbounds nuw i8, ptr %0, i64 192
  br i1 %.not51, label %14, label %12

12:                                               ; preds = %3
  %13 = tail call i32 @AES_set_encrypt_key(ptr noundef %1, i32 noundef %10, ptr noundef nonnull %11) #5
  br label %16

14:                                               ; preds = %3
  %15 = tail call i32 @AES_set_decrypt_key(ptr noundef %1, i32 noundef %10, ptr noundef nonnull %11) #5
  br label %16

16:                                               ; preds = %14, %12
  %AES_encrypt.sink = phi ptr [ @AES_decrypt, %14 ], [ @AES_encrypt, %12 ]
  %17 = getelementptr inbounds nuw i8, ptr %0, i64 704
  store ptr %AES_encrypt.sink, ptr %17, align 8, !tbaa !7
  %18 = and i32 %4, 512
  %.not = icmp eq i32 %18, 0
  %.ossl_bsaes_xts_encrypt = select i1 %.not, ptr null, ptr @ossl_bsaes_xts_encrypt
  %.ossl_bsaes_xts_decrypt = select i1 %.not, ptr null, ptr @ossl_bsaes_xts_decrypt
  %19 = getelementptr inbounds nuw i8, ptr %1, i64 %5
  %20 = getelementptr inbounds nuw i8, ptr %0, i64 440
  %21 = tail call i32 @AES_set_encrypt_key(ptr noundef %19, i32 noundef %10, ptr noundef nonnull %20) #5
  %22 = getelementptr inbounds nuw i8, ptr %0, i64 688
  %23 = getelementptr inbounds nuw i8, ptr %0, i64 712
  store ptr @AES_encrypt, ptr %23, align 8, !tbaa !16
  %24 = getelementptr inbounds nuw i8, ptr %0, i64 192
  store ptr %24, ptr %22, align 8, !tbaa !17
  %25 = getelementptr inbounds nuw i8, ptr %0, i64 696
  store ptr %20, ptr %25, align 8, !tbaa !18
  %26 = load i8, ptr %7, align 4
  %27 = and i8 %26, 2
  %.not52 = icmp eq i8 %27, 0
  %28 = select i1 %.not52, ptr %.ossl_bsaes_xts_decrypt, ptr %.ossl_bsaes_xts_encrypt
  %29 = getelementptr inbounds nuw i8, ptr %0, i64 720
  store ptr %28, ptr %29, align 8, !tbaa !19
  ret i32 1
}